(dp0
S'snps'
p1
(dp2
S'wchA'
p3
(dp4
I504
(dp5
S'09L'
p6
(lp7
S'TAT'
p8
aI168
aS'Y'
p9
asS'09N'
p10
(lp11
S'TCT'
p12
aI168
aS'S'
p13
assI879
(dp14
g6
(lp15
S'CCA'
p16
aI293
aS'P'
p17
asg10
(lp18
S'TCA'
p19
aI293
ag13
asssS'wcjA'
p20
(dp21
I429
(dp22
g6
(lp23
S'GGT'
p24
aI143
aS'G'
p25
asg10
(lp26
S'AGT'
p27
aI143
ag13
assI528
(dp28
g6
(lp29
S'GAT'
p30
aI176
aS'D'
p31
asg10
(lp32
g24
aI176
ag25
assI852
(dp33
g6
(lp34
S'GCA'
p35
aI284
aS'A'
p36
asg10
(lp37
g19
aI284
ag13
assI636
(dp38
g6
(lp39
g30
aI212
ag31
asg10
(lp40
S'AAT'
p41
aI212
aS'N'
p42
assI957
(dp43
g6
(lp44
S'ATT'
p45
aI319
aS'I'
p46
asg10
(lp47
S'ACT'
p48
aI319
aS'T'
p49
assI414
(dp50
g6
(lp51
S'CAT'
p52
aI138
aS'H'
p53
asg10
(lp54
g8
aI138
ag9
asssS'wcjB'
p55
(dp56
I789
(dp57
g6
(lp58
S'GCC'
p59
aI263
ag36
asg10
(lp60
S'ACC'
p61
aI263
ag49
asssS'wzy'
p62
(dp63
I846
(dp64
g6
(lp65
S'GAC'
p66
aI282
ag31
asg10
(lp67
S'AAC'
p68
aI282
ag42
assssS'genes'
p69
(dp70
S'09A'
p71
(dp72
S'wcjD'
p73
I1
ssg6
(dp74
g73
I0
ssg10
(dp75
g73
I0
ssS'09V'
p76
(dp77
g73
I1
sssS'pseudo'
p78
(dp79
g71
(dp80
S'wcjE'
p81
(lp82
I1
a(lp83
(I721
I722
tp84
aS'-'
p85
aassg76
(dp86
g81
(lp87
I0
a(lp88
(I721
I722
tp89
ag25
aasss.