(dp0
S'snps'
p1
(dp2
S'mnp1'
p3
(dp4
I288
(dp5
S'42'
p6
(lp7
S'CTT'
p8
aI96
aS'L'
p9
asS'35C'
p10
(lp11
g8
aI96
ag9
asS'35A'
p12
(lp13
S'GTT'
p14
aI96
aS'V'
p15
assI198
(dp16
g6
(lp17
S'TGC'
p18
aI66
aS'C'
p19
asg10
(lp20
g18
aI66
ag19
asg12
(lp21
S'CGC'
p22
aI66
aS'R'
p23
assI456
(dp24
g6
(lp25
S'GAC'
p26
aI152
aS'D'
p27
asg10
(lp28
g26
aI152
ag27
asg12
(lp29
S'GGC'
p30
aI152
aS'G'
p31
assI594
(dp32
g6
(lp33
S'TAT'
p34
aI198
aS'Y'
p35
asg10
(lp36
g34
aI198
ag35
asg12
(lp37
S'CAC'
p38
aI198
aS'H'
p39
assI564
(dp40
g6
(lp41
S'AAT'
p42
aI188
aS'N'
p43
asg10
(lp44
g42
aI188
ag43
asg12
(lp45
S'GAT'
p46
aI188
ag27
assI540
(dp47
g6
(lp48
S'GCC'
p49
aI180
aS'A'
p50
asg10
(lp51
g49
aI180
ag50
asg12
(lp52
g26
aI180
ag27
asssS'wcrI'
p53
(dp54
I453
(dp55
g6
(lp56
S'CGG'
p57
aI151
ag23
asg10
(lp58
S'CAG'
p59
aI151
aS'Q'
p60
asg12
(lp61
g59
aI151
ag60
asssS'wzh'
p62
(dp63
I528
(dp64
g6
(lp65
g46
aI176
ag27
asg10
(lp66
g34
aI176
ag35
asg12
(lp67
g34
aI176
ag35
assI465
(dp68
g6
(lp69
S'ATG'
p70
aI155
aS'M'
p71
asg10
(lp72
S'AGG'
p73
aI155
ag23
asg12
(lp74
g73
aI155
ag23
assI525
(dp75
g6
(lp76
S'CCT'
p77
aI175
aS'P'
p78
asg10
(lp79
S'CGT'
p80
aI175
ag23
asg12
(lp81
g80
aI175
ag23
assI567
(dp82
g6
(lp83
g80
aI189
ag23
asg10
(lp84
g59
aI189
ag60
asg12
(lp85
g59
aI189
ag60
assssS'pseudo'
p86
(dp87
g6
(dp88
S'wcrK'
p89
(lp90
I0
a(lp91
(I248
I249
tp92
ag31
aassg10
(dp93
g89
(lp94
I0
a(lp95
(I248
I249
tp96
ag31
aassg12
(dp97
g89
(lp98
I1
a(lp99
(I248
I249
tp100
aS'GA'
p101
aasss.