(dp0
S'snps'
p1
(dp2
S'wciU'
p3
(dp4
I736
(dp5
S'28A'
p6
(lp7
S'CAA'
p8
aI245
aS'Q'
p9
asS'28F'
p10
(lp11
S'AAG'
p12
aI245
aS'K'
p13
assI769
(dp14
g6
(lp15
S'AGT'
p16
aI256
aS'S'
p17
asg10
(lp18
S'AAT'
p19
aI256
aS'N'
p20
assI1024
(dp21
g6
(lp22
S'ATA'
p23
aI341
aS'I'
p24
asg10
(lp25
S'GTT'
p26
aI341
aS'V'
p27
assI739
(dp28
g6
(lp29
S'CCA'
p30
aI246
aS'P'
p31
asg10
(lp32
S'TCA'
p33
aI246
ag17
assI214
(dp34
g6
(lp35
g23
aI71
ag24
asg10
(lp36
S'ATG'
p37
aI71
aS'M'
p38
assI742
(dp39
g6
(lp40
g26
aI247
ag27
asg10
(lp41
S'GCT'
p42
aI247
aS'A'
p43
assI1027
(dp44
g6
(lp45
S'GCA'
p46
aI342
ag43
asg10
(lp47
g30
aI342
ag31
assI1036
(dp48
g6
(lp49
S'TGT'
p50
aI345
aS'C'
p51
asg10
(lp52
S'TGG'
p53
aI345
aS'W'
p54
assI781
(dp55
g6
(lp56
S'AAA'
p57
aI260
ag13
asg10
(lp58
g19
aI260
ag20
assI751
(dp59
g6
(lp60
S'GTA'
p61
aI250
ag27
asg10
(lp62
g23
aI250
ag24
assI880
(dp63
g6
(lp64
g42
aI293
ag43
asg10
(lp65
g26
aI293
ag27
assI913
(dp66
g6
(lp67
g61
aI304
ag27
asg10
(lp68
g46
aI304
ag43
assI883
(dp69
g6
(lp70
S'GGA'
p71
aI294
aS'G'
p72
asg10
(lp73
S'GAA'
p74
aI294
aS'E'
p75
assI838
(dp76
g6
(lp77
g33
aI279
ag17
asg10
(lp78
g30
aI279
ag31
assI118
(dp79
g6
(lp80
g50
aI39
ag51
asg10
(lp81
S'TAT'
p82
aI39
aS'Y'
p83
assI985
(dp84
g6
(lp85
S'ACG'
p86
aI328
aS'T'
p87
asg10
(lp88
g37
aI328
ag38
assI892
(dp89
g6
(lp90
g74
aI297
ag75
asg10
(lp91
S'GAT'
p92
aI297
aS'D'
p93
assI253
(dp94
g6
(lp95
g37
aI84
ag38
asg10
(lp96
S'CTG'
p97
aI84
aS'L'
p98
assI895
(dp99
g6
(lp100
g8
aI298
ag9
asg10
(lp101
S'CGA'
p102
aI298
aS'R'
p103
assss.