(dp0
S'allele'
p1
(dp2
S'wzd'
p3
(dp4
S'15A'
p5
S'wzd-1'
p6
sS'15C'
p7
S'wzd-2'
p8
sS'15B'
p9
g8
ssS'wchL'
p10
(dp11
g5
S'wchL-1'
p12
sg7
S'wchL-2'
p13
sg9
g13
sssS'genes'
p14
(dp15
g5
(dp16
S'rmlB'
p17
I0
sS'wcjE'
p18
I0
sS'glf'
p19
I0
sS'rmlD'
p20
I0
ssg7
(dp21
g17
I0
sg18
I0
sg19
I0
sg20
I0
ssg9
(dp22
g17
I0
sg18
I0
sg19
I0
sg20
I0
ssS'15F'
p23
(dp24
g17
I1
sg18
I1
sg19
I1
sg20
I1
sssS'pseudo'
p25
(dp26
g7
(dp27
S'wciZ'
p28
(lp29
I1
a(lp30
(I412
I417
tp31
aassg9
(dp32
g28
(lp33
I0
a(lp34
(I412
I417
tp35
aasss.