(dp0
S'snps'
p1
(dp2
S'wcxF'
p3
(dp4
I256
(dp5
S'46'
p6
(lp7
S'ACC'
p8
aI85
aS'T'
p9
asS'12A'
p10
(lp11
S'GCC'
p12
aI85
aS'A'
p13
asS'12B'
p14
(lp15
g12
aI85
ag13
asS'44'
p16
(lp17
g12
aI85
ag13
asS'12F'
p18
(lp19
g12
aI85
ag13
assI1120
(dp20
g6
(lp21
g12
aI373
ag13
asg10
(lp22
g12
aI373
ag13
asg14
(lp23
g12
aI373
ag13
asg16
(lp24
g8
aI373
ag9
asg18
(lp25
g12
aI373
ag13
assI560
(dp26
g6
(lp27
S'CTT'
p28
aI186
aS'L'
p29
asg10
(lp30
g28
aI186
ag29
asg14
(lp31
g28
aI186
ag29
asg16
(lp32
S'CCT'
p33
aI186
aS'P'
p34
asg18
(lp35
g28
aI186
ag29
assI787
(dp36
g6
(lp37
S'CTA'
p38
aI262
ag29
asg10
(lp39
g38
aI262
ag29
asg14
(lp40
g38
aI262
ag29
asg16
(lp41
S'ATA'
p42
aI262
aS'I'
p43
asg18
(lp44
g38
aI262
ag29
assI916
(dp45
g6
(lp46
S'AGT'
p47
aI305
aS'S'
p48
asg10
(lp49
S'GGT'
p50
aI305
aS'G'
p51
asg14
(lp52
g50
aI305
ag51
asg16
(lp53
S'GCT'
p54
aI305
ag13
asg18
(lp55
g50
aI305
ag51
assI889
(dp56
g6
(lp57
S'ATT'
p58
aI296
ag43
asg10
(lp59
S'GTT'
p60
aI296
aS'V'
p61
asg14
(lp62
g60
aI296
ag61
asg16
(lp63
g60
aI296
ag61
asg18
(lp64
g60
aI296
ag61
assI703
(dp65
g6
(lp66
g38
aI234
ag29
asg10
(lp67
g42
aI234
ag43
asg14
(lp68
g38
aI234
ag29
asg16
(lp69
g38
aI234
ag29
asg18
(lp70
g38
aI234
ag29
asssS'wcxD'
p71
(dp72
I805
(dp73
g6
(lp74
S'CCA'
p75
aI268
ag34
asg10
(lp76
S'TCA'
p77
aI268
ag48
asg14
(lp78
g77
aI268
ag48
asg16
(lp79
g77
aI268
ag48
asg18
(lp80
g77
aI268
ag48
assI809
(dp81
g6
(lp82
S'ACT'
p83
aI269
ag9
asg10
(lp84
S'ATG'
p85
aI269
aS'M'
p86
asg14
(lp87
g85
aI269
ag86
asg16
(lp88
g85
aI269
ag86
asg18
(lp89
g85
aI269
ag86
assI812
(dp90
g6
(lp91
S'GTA'
p92
aI270
ag61
asg10
(lp93
S'GCA'
p94
aI270
ag13
asg14
(lp95
g92
aI270
ag61
asg16
(lp96
g92
aI270
ag61
asg18
(lp97
g92
aI270
ag61
assI781
(dp98
g6
(lp99
g85
aI260
ag86
asg10
(lp100
S'TTG'
p101
aI260
ag29
asg14
(lp102
g101
aI260
ag29
asg16
(lp103
g101
aI260
ag29
asg18
(lp104
g101
aI260
ag29
assI845
(dp105
g6
(lp106
g60
aI281
ag61
asg10
(lp107
g54
aI281
ag13
asg14
(lp108
g54
aI281
ag13
asg16
(lp109
g54
aI281
ag13
asg18
(lp110
g54
aI281
ag13
assI793
(dp111
g6
(lp112
S'CAT'
p113
aI264
aS'H'
p114
asg10
(lp115
S'TAT'
p116
aI264
aS'Y'
p117
asg14
(lp118
g116
aI264
ag117
asg16
(lp119
g116
aI264
ag117
asg18
(lp120
g116
aI264
ag117
asssS'wzy'
p121
(dp122
I251
(dp123
g6
(lp124
g83
aI83
ag9
asg10
(lp125
g58
aI83
ag43
asg14
(lp126
g83
aI83
ag9
asg16
(lp127
g83
aI83
ag9
asg18
(lp128
g83
aI83
ag9
assssS'allele'
p129
(dp130
S'wciI'
p131
(dp132
g6
S'wciI-1'
p133
sg10
g133
sg14
g133
sg16
g133
sg18
S'wciI-2'
p134
sss.