(dp0
S'snps'
p1
(dp2
S'wcrL'
p3
(dp4
I334
(dp5
S'11D'
p6
(lp7
S'AGT'
p8
aI111
aS'S'
p9
asS'11F'
p10
(lp11
S'GCT'
p12
aI111
aS'A'
p13
asS'11A'
p14
(lp15
S'AAT'
p16
aI111
aS'N'
p17
assssS'genes'
p18
(dp19
g6
(dp20
S'wcwR'
p21
I0
sS'wcwC_11A'
p22
I1
sS'wcjE'
p23
I1
ssg10
(dp24
g21
I0
sS'wcwC_11F'
p25
I1
sg23
I1
ssg14
(dp26
g21
I0
sg22
I1
sg23
I1
ssS'11C'
p27
(dp28
g21
I1
sg22
I0
sg23
I0
ssS'11B'
p29
(dp30
g21
I1
sg22
I0
sg23
I0
sssS'pseudo'
p31
(dp32
g6
(dp33
S'gct'
p34
(lp35
I0
a(lp36
(I130
I131
tp37
ag13
aassg10
(dp38
g34
(lp39
I1
a(lp40
(I130
I131
tp41
aS'-'
p42
aassg14
(dp43
g34
(lp44
I0
a(lp45
(I130
I131
tp46
ag13
aassg27
(dp47
g34
(lp48
I0
a(lp49
(I130
I131
tp50
ag13
aassg29
(dp51
g34
(lp52
I1
a(lp53
(I130
I131
tp54
ag42
aasss.