(dp0
S'snps'
p1
(dp2
S'wcyC'
p3
(dp4
I903
(dp5
S'25A'
p6
(lp7
S'TGG'
p8
aI301
aS'W'
p9
asS'25F'
p10
(lp11
S'CGG'
p12
aI301
aS'R'
p13
asS'38'
p14
(lp15
g8
aI301
ag9
assI429
(dp16
g6
(lp17
S'GCT'
p18
aI143
aS'A'
p19
asg10
(lp20
S'ACT'
p21
aI143
aS'T'
p22
asg14
(lp23
g18
aI143
ag19
assI465
(dp24
g6
(lp25
S'ACA'
p26
aI155
ag22
asg10
(lp27
S'AAA'
p28
aI155
aS'K'
p29
asg14
(lp30
g26
aI155
ag22
assI660
(dp31
g6
(lp32
S'CGA'
p33
aI220
ag13
asg10
(lp34
S'CTA'
p35
aI220
aS'L'
p36
asg14
(lp37
g33
aI220
ag13
assI891
(dp38
g6
(lp39
S'ATG'
p40
aI297
aS'M'
p41
asg10
(lp42
S'CTG'
p43
aI297
ag36
asg14
(lp44
g40
aI297
ag41
assI573
(dp45
g6
(lp46
S'GAA'
p47
aI191
aS'E'
p48
asg10
(lp49
S'GGA'
p50
aI191
aS'G'
p51
asg14
(lp52
g47
aI191
ag48
assssS'allele'
p53
(dp54
S'wcyD'
p55
(dp56
g6
S'wcyD-1'
p57
sg10
g57
sg14
S'wcyD-2'
p58
sssS'genes'
p59
(dp60
g6
(dp61
S'wcyV'
p62
I0
ssg10
(dp63
g62
I0
ssg14
(dp64
g62
I1
sss.